target datalayout = "e-m:e-p270:32:32-p271:32:32-p272:64:64-i64:64-i128:128-f80:128-n8:16:32:64-S128"
target triple = "x86_64-pc-linux-gnu"

%"class.Ipopt::BacktrackingLineSearch" = type { %"class.Ipopt::LineSearch.base", double, i32, double, double, i32, i8, i8, i32, i8, double, double, double, double, i32, i32, i8, double, i8, i32, i32, double, %"class.Ipopt::SmartPtr.3", %"class.Ipopt::SmartPtr.3", double, %"class.Ipopt::SmartPtr.3", i32, i8, i8, i8, i8, i32, i32, i8, %"class.Ipopt::SmartPtr.4", %"class.Ipopt::SmartPtr.5", %"class.Ipopt::SmartPtr.6" }
%"class.Ipopt::LineSearch.base" = type { %"class.Ipopt::AlgorithmStrategyObject.base" }
%"class.Ipopt::AlgorithmStrategyObject.base" = type <{ %"class.Ipopt::ReferencedObject.base", [4 x i8], %"class.Ipopt::SmartPtr", %"class.Ipopt::SmartPtr.0", %"class.Ipopt::SmartPtr.1", %"class.Ipopt::SmartPtr.2", i8 }>
%"class.Ipopt::ReferencedObject.base" = type <{ ptr, i32 }>
%"class.Ipopt::SmartPtr" = type { ptr }
%"class.Ipopt::SmartPtr.0" = type { ptr }
%"class.Ipopt::SmartPtr.1" = type { ptr }
%"class.Ipopt::SmartPtr.2" = type { ptr }
%"class.Ipopt::SmartPtr.3" = type { ptr }
%"class.Ipopt::SmartPtr.4" = type { ptr }
%"class.Ipopt::SmartPtr.5" = type { ptr }
%"class.Ipopt::SmartPtr.6" = type { ptr }

; Function Attrs: mustprogress nounwind uwtable
define linkonce_odr noundef ptr @_ZNK5Ipopt8SmartPtrINS_22BacktrackingLSAcceptorEEptEv(ptr noundef nonnull align 8 dereferenceable(8) %0) #5 comdat align 2 {
  %2 = alloca ptr, align 8
  store ptr %0, ptr %2, align 8, !tbaa !8
  %3 = load ptr, ptr %2, align 8
  %4 = getelementptr inbounds nuw %"class.Ipopt::SmartPtr.4", ptr %3, i32 0, i32 0
  %5 = load ptr, ptr %4, align 8, !tbaa !46
  ret ptr %5
}

; Function Attrs: mustprogress uwtable
define void @_ZN5Ipopt22BacktrackingLineSearch5ResetEv(ptr noundef nonnull align 8 dereferenceable(264) %0) unnamed_addr #4 align 2 {
  %2 = alloca ptr, align 8
  store ptr %0, ptr %2, align 8, !tbaa !3
  %3 = load ptr, ptr %2, align 8
  %4 = getelementptr inbounds nuw %"class.Ipopt::BacktrackingLineSearch", ptr %3, i32 0, i32 30
  store i8 0, ptr %4, align 1, !tbaa !96
  %5 = getelementptr inbounds nuw %"class.Ipopt::BacktrackingLineSearch", ptr %3, i32 0, i32 31
  store i32 0, ptr %5, align 8, !tbaa !100
  %6 = getelementptr inbounds nuw %"class.Ipopt::BacktrackingLineSearch", ptr %3, i32 0, i32 34
  %7 = call noundef ptr @_ZNK5Ipopt8SmartPtrINS_22BacktrackingLSAcceptorEEptEv(ptr noundef nonnull align 8 dereferenceable(8) %6)
  %8 = load ptr, ptr %7, align 8, !tbaa !14
  %9 = getelementptr inbounds ptr, ptr %8, i64 3
  %10 = load ptr, ptr %9, align 8
  call void %10(ptr noundef nonnull align 8 dereferenceable(49) %7)
  ret void
}