; Function Attrs: mustprogress uwtable
define void @_ZN5Ipopt22BacktrackingLineSearch5ResetEv(ptr noundef nonnull align 8 captures(none) dereferenceable(264) initializes((223, 228)) %0) unnamed_addr #6 align 2 {
  %2 = getelementptr inbounds nuw i8, ptr %0, i64 223
  store i8 0, ptr %2, align 1, !tbaa !145
  %3 = getelementptr inbounds nuw i8, ptr %0, i64 224
  store i32 0, ptr %3, align 8, !tbaa !196
  %4 = getelementptr inbounds nuw i8, ptr %0, i64 240
  %5 = load ptr, ptr %4, align 8, !tbaa !35
  %6 = load ptr, ptr %5, align 8, !tbaa !8
  %7 = getelementptr inbounds nuw i8, ptr %6, i64 24
  %8 = load ptr, ptr %7, align 8
  tail call void %8(ptr noundef nonnull align 8 dereferenceable(49) %5)
  ret void
}